cdebian_linux.config
ConfigCore
p0
(tRp1
(Vabi
p2
tp3
(dp4
Vignore-changes
p5
(lp6
V__cpuhp_*
p7
aVbpf_analyzer
p8
aVcpu_tlbstate
p9
aVcxl_*
p10
aVinet_frag_*
p11
aVinet_frags_*
p12
aVinjectm
p13
aVip6_expire_frag_queue
p14
aVip6_frag_*
p15
aVmce_*
p16
aVmm_iommu_*
p17
aVmv_mbus_*
p18
aVregister_cxl_calls
p19
aVregister_key_type
p20
aVtpm_*
p21
aVtpmm_chip_alloc
p22
aVunregister_cxl_calls
p23
aVmodule:drivers/block/loop
p24
aVmodule:drivers/crypto/ccp/*
p25
aVmodule:drivers/edac/edac_mce_amd
p26
aVmodule:drivers/hv/*
p27
aVmodule:drivers/iio/common/hid-sensors/*
p28
aVmodule:drivers/iio/common/st_sensors/**
p29
aVmodule:drivers/net/ethernet/**
p30
aVmodule:drivers/net/wireless/**
p31
aVmodule:drivers/nfc/**
p32
aVmodule:drivers/nvdimm/*
p33
aVmodule:drivers/nvme/**
p34
aVmodule:drivers/power/supply/bq27xxx_battery
p35
aVmodule:drivers/s390/net/qeth
p36
aVmodule:drivers/s390/net/qeth*
p37
aVmodule:drivers/scsi/cxgbi/*
p38
aVmodule:drivers/scsi/esp_scsi
p39
aVmodule:drivers/scsi/libiscs*
p40
aVmodule:drivers/scsi/qla2xxx/qla2xxx
p41
aVmodule:drivers/scsi/ufs/*
p42
aVmodule:drivers/target/**
p43
aVmodule:drivers/usb/chipidea/**
p44
aVmodule:drivers/usb/gadget/**
p45
aVmodule:drivers/usb/host/**
p46
aVmodule:drivers/usb/musb/**
p47
aVmodule:drivers/vhost/vhost
p48
aVmodule:fs/crypto/fscrypto
p49
aVmodule:fs/nfs/nfs
p50
aVmodule:net/ceph/libceph
p51
aVmodule:net/nfc/hci/hci
p52
aVmodule:net/l2tp/**
p53
aVmodule:net/vmw_vsock/*
p54
aVmodule:sound/firewire/snd-firewire-lib
p55
aVmodule:sound/pci/hda/*
p56
aVbtree_*
p57
aVvisitor*
p58
aVcan_rx_register
p59
aVip6_xmit
p60
aVmodule:net/dccp/dccp
p61
aVmodule:net/rds/rds
p62
aVdevfreq_*
p63
aVdevm_devfreq_*
p64
aVupdate_devfreq
p65
aVmodule:drivers/infiniband/**
p66
aVacpi_ec_add_query_handler
p67
aVacpi_ec_remove_query_handler
p68
aVfirst_ec
p69
aVdebugfs_create_automount
p70
aV__gfn_*
p71
aV__kvm_*
p72
aVgfn_*
p73
aVkvm_*
p74
aVmark_page_dirty
p75
aVvcpu_*
p76
aVmodule:arch/powerpc/kvm/*
p77
aVmodule:arch/s390/kvm/*
p78
aVmodule:arch/x86/kvm/*
p79
aV*_evtchn_*
p80
aV*_xen_*
p81
aV*_xenballooned_*
p82
aV*_xenbus_*
p83
aV*_xenstore_*
p84
aVgnttab_*
p85
aVHYPERVISOR_*
p86
aVx86_hyper_xen
p87
aVxen_*
p88
aVxenbus_*
p89
aVreturn_address
p90
aVbr_netfilter_enable
p91
asVabiname
p92
V14-2
p93
ss(Vdescription
p94
tp95
(dp96
Vpart-long-xen
p97
VThis kernel also runs on a Xen hypervisor.\u000aIt supports both privileged (dom0) and unprivileged (domU) operation.
p98
sVpart-long-up
p99
VThis kernel is not suitable for SMP (multi-processor,\u000amulti-core or hyper-threaded) systems.
p100
ss(Vrelations
p101
tp102
(dp103
Vinitramfs-fallback
p104
Vlinux-initramfs-tool
p105
sVgcc-6
p106
Vgcc-6 <!stage1 !cross>, gcc-6-@gnu-type-package@ <!stage1 cross>
p107
sVinitramfs-tools
p108
Vinitramfs-tools (>= 0.120+deb8u2)
p109
ss(Vbase
p110
tp111
(dp112
Varches
p113
(lp114
Valpha
p115
aVamd64
p116
aVarm64
p117
aVarmel
p118
aVarmhf
p119
aVhppa
p120
aVi386
p121
aVm68k
p122
aVmips
p123
aVmipsel
p124
aVmipsn32
p125
aVmipsn32el
p126
aVmips64
p127
aVmips64el
p128
aVpowerpc
p129
aVpowerpcspe
p130
aVppc64
p131
aVppc64el
p132
aVs390
p133
aVs390x
p134
aVsh3
p135
aVsh4
p136
aVsparc
p137
aVsparc64
p138
aVtilegx
p139
aVx32
p140
asVfeaturesets
p141
(lp142
Vnone
p143
aVrt
p144
asVcompiler
p145
Vgcc-6
p146
ss(Vbase
p147
NVrt
p148
tp149
(dp150
Venabled
p151
I01
ss(Vbuild
p152
tp153
(dp154
Vdebug-info
p155
I01
sVsigned-modules
p156
I00
ss(Vimage
p157
tp158
(dp159
Vinitramfs-generators
p160
(lp161
Vinitramfs-tools
p162
aVinitramfs-fallback
p163
ass(Vimage
p164
Valpha
p165
tp166
(dp167
Vinstall-stem
p168
Vvmlinuz
p169
sVsuggests
p170
Vaboot, fdutils
p171
ss(Vbuild
p172
g165
tp173
(dp174
Vsigned-modules
p175
I00
sVimage-file
p176
Varch/alpha/boot/vmlinux.gz
p177
ss(Vdescription
p178
g165
NValpha-generic
p179
tp180
(dp181
Vhardware-long
p182
VDEC Alpha systems with extended kernel start address (Wildfire, Titan, Marvel)
p183
sVhardware
p184
VAlpha
p185
ss(Vdescription
p186
g165
NValpha-smp
p187
tp188
(dp189
Vhardware-long
p190
VDEC Alpha SMP systems with extended kernel start address (Wildfire, Titan, Marvel)
p191
sVhardware
p192
VAlpha SMP
p193
ss(Vbase
p194
g165
tp195
(dp196
Vfeaturesets
p197
(lp198
Vnone
p199
asVkernel-arch
p200
Valpha
p201
ss(Vbase
p202
g165
g199
tp203
(dp204
Vimplicit-flavour
p205
I01
sVflavours
p206
(lp207
Valpha-generic
p208
aValpha-smp
p209
ass(Vimage
p210
Vamd64
p211
tp212
(dp213
Vbreaks
p214
Vxserver-xorg-input-vmmouse (<< 1:13.0.99), qemu-system-x86 (<< 1:2.5+dfsg-1)
p215
sVinstall-stem
p216
Vvmlinuz
p217
sVbootloaders
p218
(lp219
Vgrub-pc
p220
aVgrub-efi-amd64
p221
aVextlinux
p222
ass(Vbuild
p223
g211
tp224
(dp225
Vdebug-info
p226
I01
sVimage-file
p227
Varch/x86/boot/bzImage
p228
sVvdso
p229
I01
ss(Vrelations
p230
g211
tp231
(dp232
Vheaders%gcc-6
p233
Vlinux-compiler-gcc-6-x86 (>= 4.9.82-1+deb9u1~)
p234
sVgcc-6
p235
Vgcc-6 (>= 6.3.0-18+deb9u1~) <!stage1 !cross>, gcc-6-@gnu-type-package@ (>= 6.3.0-18+deb9u1~) <!stage1 cross>
p236
ss(Vdescription
p237
g211
NVamd64
p238
tp239
(dp240
Vhardware-long
p241
VPCs with AMD64, Intel 64 or VIA Nano processors
p242
sVhardware
p243
V64-bit PCs
p244
ss(Vbase
p245
g211
tp246
(dp247
Vfeaturesets
p248
(lp249
Vnone
p250
aVrt
p251
asVkernel-arch
p252
Vx86
p253
ss(Vdescription
p254
g211
Vnone
p255
Vamd64
p256
tp257
(dp258
Vparts
p259
(lp260
Vxen
p261
ass(Vbase
p262
g211
g255
tp263
(dp264
Vflavours
p265
(lp266
Vamd64
p267
ass(Vbase
p268
g211
Vrt
p269
tp270
(dp271
Vflavours
p272
(lp273
Vamd64
p274
ass(Vimage
p275
Varm64
p276
tp277
(dp278
Vinstall-stem
p279
Vvmlinuz
p280
sVbreaks
p281
Vlibmozjs185-1.0, libmozjs-24-0 (<< 24.2.0-5.1~)
p282
ss(Vbuild
p283
g276
tp284
(dp285
Vdebug-info
p286
I01
sVimage-file
p287
Varch/arm64/boot/Image
p288
sVvdso
p289
I01
ss(Vimage
p290
g276
NVarm64
p291
tp292
(dp293
s(Vdescription
p294
g276
NVarm64
p295
tp296
(dp297
Vhardware
p298
V64-bit ARMv8 machines
p299
ss(Vbase
p300
g276
tp301
(dp302
Vfeaturesets
p303
(lp304
Vnone
p305
asVkernel-arch
p306
Varm64
p307
ss(Vbase
p308
g276
Vnone
p309
tp310
(dp311
Vflavours
p312
(lp313
Varm64
p314
ass(Vrelations
p315
Varmel
p316
tp317
(dp318
Vheaders%gcc-6
p319
Vlinux-compiler-gcc-6-arm
p320
ss(Vimage
p321
g316
NVmarvell
p322
tp323
(dp324
Vcheck-size
p325
L2097080L
sVrecommends
p326
Vu-boot-tools
p327
sVcheck-size-with-dtb
p328
I01
sVbreaks
p329
Vflash-kernel (<< 3.57~)
p330
ss(Vbase
p331
g316
tp332
(dp333
g197
(lp334
g199
asVkernel-arch
p335
Varm
p336
ss(Vimage
p337
g316
tp338
(dp339
Vinstall-stem
p340
Vvmlinuz
p341
ss(Vbuild
p342
g316
tp343
(dp344
Vsigned-modules
p345
I00
sVimage-file
p346
Varch/arm/boot/zImage
p347
ss(Vdescription
p348
g316
NVmarvell
p349
tp350
(dp351
Vhardware-long
p352
VMarvell Kirkwood based systems (SheevaPlug, QNAP TS-119/TS-219, etc)\u000aand Orion 5181, 5182 and 5281 based systems (QNAP TS-109/TS-209, etc)
p353
sVhardware
p354
VMarvell Kirkwood/Orion
p355
ss(g202
g316
g199
tp356
(dp357
g205
I01
sg206
(lp358
Vmarvell
p359
ass(Vrelations
p360
Varmhf
p361
tp362
(dp363
Vheaders%gcc-6
p364
Vlinux-compiler-gcc-6-arm
p365
ss(Vbase
p366
g361
tp367
(dp368
g197
(lp369
g199
asVkernel-arch
p370
Varm
p371
ss(Vimage
p372
g361
tp373
(dp374
Vinstall-stem
p375
Vvmlinuz
p376
ss(Vbuild
p377
g361
tp378
(dp379
Vimage-file
p380
Varch/arm/boot/zImage
p381
sVvdso
p382
I01
ss(Vdescription
p383
g361
NVarmmp-lpae
p384
tp385
(dp386
Vhardware-long
p387
VARMv7 multiplatform kernel supporting LPAE. See\u000ahttps://wiki.debian.org/DebianKernel/ARMMP for details of supported\u000aplatforms.
p388
sVhardware
p389
VARMv7 multiplatform compatible SoCs supporting LPAE
p390
ss(Vdescription
p391
g361
NVarmmp
p392
tp393
(dp394
Vhardware-long
p395
VARMv7 multiplatform kernel. See\u000ahttps://wiki.debian.org/DebianKernel/ARMMP for details of supported\u000aplatforms
p396
sVhardware
p397
VARMv7 multiplatform compatible SoCs
p398
ss(g202
g361
g199
tp399
(dp400
g205
I01
sg206
(lp401
Varmmp
p402
aVarmmp-lpae
p403
ass(Vrelations
p404
Vhppa
p405
tp406
(dp407
Vgcc-6
p408
Vgcc-6 <!stage1 !cross>, binutils-hppa64-linux-gnu <!stage1 !cross>, gcc-6-hppa64-linux-gnu <!stage1 !cross>, gcc-6-hppa-linux-gnu <!stage1 cross>, binutils-hppa64-linux-gnu <!stage1 cross>, gcc-6-hppa64-linux-gnu <!stage1 cross>
p409
ss(Vbase
p410
g405
tp411
(dp412
g197
(lp413
g199
asVkernel-arch
p414
Vparisc
p415
ss(Vimage
p416
g405
tp417
(dp418
Vinstall-stem
p419
Vvmlinux
p420
sVsuggests
p421
Vpalo
p422
ss(Vbuild
p423
g405
tp424
(dp425
Vsigned-modules
p426
I00
sVimage-file
p427
Vvmlinux
p428
ss(Vbase
p429
g405
NVparisc64-smp
p430
tp431
(dp432
Voverride-host-type
p433
Vhppa64-linux-gnu
p434
sVcflags
p435
V-fno-cse-follow-jumps
p436
ss(Vdescription
p437
g405
NVparisc64-smp
p438
tp439
(dp440
Vhardware-long
p441
VHP PA-RISC 64-bit SMP systems with support for more than 4 GB RAM
p442
sVhardware
p443
Vmultiprocessor 64-bit PA-RISC
p444
ss(Vdescription
p445
g405
NVparisc
p446
tp447
(dp448
Vhardware-long
p449
VHP PA-RISC 32-bit systems with max 4 GB RAM
p450
sVhardware
p451
V32-bit PA-RISC
p452
ss(g202
g405
g199
tp453
(dp454
g205
I01
sg206
(lp455
Vparisc
p456
aVparisc64-smp
p457
ass(Vimage
p458
Vi386
p459
tp460
(dp461
Vbreaks
p462
Vxserver-xorg-input-vmmouse (<< 1:13.0.99), qemu-system-x86 (<< 1:2.5+dfsg-1)
p463
sVinstall-stem
p464
Vvmlinuz
p465
sVbootloaders
p466
(lp467
Vgrub-pc
p468
aVextlinux
p469
ass(Vrelations
p470
g459
tp471
(dp472
Vheaders%gcc-6
p473
Vlinux-compiler-gcc-6-x86 (>= 4.9.82-1+deb9u1~)
p474
sVgcc-6
p475
Vgcc-6 (>= 6.3.0-18+deb9u1~) <!stage1 !cross>, gcc-6-@gnu-type-package@ (>= 6.3.0-18+deb9u1~) <!stage1 cross>
p476
ss(Vdescription
p477
g459
NV686
p478
tp479
(dp480
Vhardware-long
p481
VPCs with one or more processors not supporting PAE
p482
sVhardware
p483
Volder PCs
p484
ss(Vdescription
p485
g459
NV686-pae
p486
tp487
(dp488
Vhardware-long
p489
VPCs with one or more processors supporting PAE
p490
sVparts
p491
(lp492
Vpae
p493
asVhardware
p494
Vmodern PCs
p495
ss(Vbase
p496
g459
tp497
(dp498
Vfeaturesets
p499
(lp500
Vnone
p501
aVrt
p502
asVkernel-arch
p503
Vx86
p504
ss(Vdescription
p505
g459
tp506
(dp507
Vpart-long-pae
p508
VThis kernel requires PAE (Physical Address Extension).\u000aThis feature is supported by the Intel Pentium Pro/II/III/4/4M/D, Xeon,\u000aCore and Atom; AMD Geode NX, Athlon (K7), Duron, Opteron, Sempron,\u000aTurion or Phenom; Transmeta Efficeon; VIA C7; and some other processors.
p509
ss(Vbuild
p510
g459
tp511
(dp512
Vimage-file
p513
Varch/x86/boot/bzImage
p514
sVvdso
p515
I01
ss(Vbuild
p516
g459
NV686-pae
p517
tp518
(dp519
Vdebug-info
p520
I01
ss(Vdescription
p521
g459
Vnone
p522
V686-pae
p523
tp524
(dp525
Vparts
p526
(lp527
Vxen
p528
ass(Vbase
p529
g459
g522
tp530
(dp531
Vflavours
p532
(lp533
V686
p534
aV686-pae
p535
ass(Vbase
p536
g459
Vrt
p537
tp538
(dp539
Vflavours
p540
(lp541
V686-pae
p542
ass(Vimage
p543
Vm68k
p544
tp545
(dp546
Vinstall-stem
p547
Vvmlinuz
p548
sVsuggests
p549
Vvmelilo, fdutils
p550
ss(Vbuild
p551
g544
tp552
(dp553
Vsigned-modules
p554
I00
sVimage-file
p555
Vvmlinux.gz
p556
ss(Vdescription
p557
g544
NVm68k
p558
tp559
(dp560
Vhardware
p561
VMotorola MC68020+ family
p562
ss(Vbase
p563
g544
tp564
(dp565
g197
(lp566
g199
asVkernel-arch
p567
Vm68k
p568
sVcflags
p569
V-ffreestanding
p570
ss(g202
g544
g199
tp571
(dp572
g205
I01
sg206
(lp573
Vm68k
p574
ass(Vimage
p575
Vmips
p576
NV4kc-malta
p577
tp578
(dp579
Vconfigs
p580
(lp581
Vkernelarch-mips/config.malta
p582
aVkernelarch-mips/config.mips32r2
p583
ass(Vimage
p584
g576
NVocteon
p585
tp586
(dp587
Vconfigs
p588
(lp589
Vkernelarch-mips/config.octeon
p590
ass(Vimage
p591
g576
NV5kc-malta
p592
tp593
(dp594
Vconfigs
p595
(lp596
Vkernelarch-mips/config.malta
p597
aVkernelarch-mips/config.mips64r2
p598
ass(Vdescription
p599
g576
NV5kc-malta
p600
tp601
(dp602
Vhardware-long
p603
VMIPS Malta boards (64-bit)
p604
sVhardware
p605
VMIPS Malta (64-bit)
p606
ss(Vbase
p607
g576
tp608
(dp609
g197
(lp610
g199
asVkernel-arch
p611
Vmips
p612
ss(Vimage
p613
g576
tp614
(dp615
Vinstall-stem
p616
Vvmlinux
p617
ss(Vbuild
p618
g576
tp619
(dp620
Vsigned-modules
p621
I00
sVimage-file
p622
Vvmlinux
p623
ss(Vdescription
p624
g576
NVocteon
p625
tp626
(dp627
Vhardware-long
p628
VCavium Networks Octeon
p629
sVhardware
p630
VOcteon
p631
ss(Vdescription
p632
g576
NV4kc-malta
p633
tp634
(dp635
Vhardware-long
p636
VMIPS Malta boards
p637
sVhardware
p638
VMIPS Malta
p639
ss(g202
g576
g199
tp640
(dp641
g205
I01
sg206
(lp642
V4kc-malta
p643
aV5kc-malta
p644
aVocteon
p645
ass(Vimage
p646
Vmipsel
p647
NV4kc-malta
p648
tp649
(dp650
Vconfigs
p651
(lp652
Vkernelarch-mips/config.malta
p653
aVkernelarch-mips/config.mips32r2
p654
ass(Vimage
p655
g647
NVloongson-3
p656
tp657
(dp658
Vconfigs
p659
(lp660
Vkernelarch-mips/config.loongson-3
p661
ass(Vdescription
p662
g647
NVloongson-3
p663
tp664
(dp665
Vhardware-long
p666
VLoongson 3A or 3B based systems (e.g. from Loongson or Lemote)
p667
sVhardware
p668
VLoongson 3A/3B
p669
ss(Vimage
p670
g647
NVocteon
p671
tp672
(dp673
Vconfigs
p674
(lp675
Vkernelarch-mips/config.octeon
p676
ass(Vimage
p677
g647
NV5kc-malta
p678
tp679
(dp680
Vconfigs
p681
(lp682
Vkernelarch-mips/config.malta
p683
aVkernelarch-mips/config.mips64r2
p684
ass(Vdescription
p685
g647
NV5kc-malta
p686
tp687
(dp688
Vhardware-long
p689
VMIPS Malta boards (64-bit)
p690
sVhardware
p691
VMIPS Malta (64-bit)
p692
ss(Vbase
p693
g647
tp694
(dp695
g197
(lp696
g199
asVkernel-arch
p697
Vmips
p698
ss(Vimage
p699
g647
tp700
(dp701
Vinstall-stem
p702
Vvmlinux
p703
ss(Vbuild
p704
g647
tp705
(dp706
Vsigned-modules
p707
I00
sVimage-file
p708
Vvmlinux
p709
ss(Vdescription
p710
g647
NVocteon
p711
tp712
(dp713
Vhardware-long
p714
VCavium Networks Octeon
p715
sVhardware
p716
VOcteon
p717
ss(Vdescription
p718
g647
NV4kc-malta
p719
tp720
(dp721
Vhardware-long
p722
VMIPS Malta boards
p723
sVhardware
p724
VMIPS Malta
p725
ss(g202
g647
g199
tp726
(dp727
g205
I01
sg206
(lp728
V4kc-malta
p729
aV5kc-malta
p730
aVloongson-3
p731
aVocteon
p732
ass(Vbase
p733
Vmipsn32
p734
tp735
(dp736
Vfeaturesets
p737
(lp738
sVkernel-arch
p739
Vmips
p740
ss(Vbase
p741
Vmipsn32el
p742
tp743
(dp744
Vfeaturesets
p745
(lp746
sVkernel-arch
p747
Vmips
p748
ss(Vimage
p749
Vmips64
p750
NVocteon
p751
tp752
(dp753
Vconfigs
p754
(lp755
Vkernelarch-mips/config.octeon
p756
ass(Vdescription
p757
g750
NV5kc-malta
p758
tp759
(dp760
Vhardware-long
p761
VMIPS Malta boards
p762
sVhardware
p763
VMIPS Malta
p764
ss(Vimage
p765
g750
NV5kc-malta
p766
tp767
(dp768
Vconfigs
p769
(lp770
Vkernelarch-mips/config.malta
p771
aVkernelarch-mips/config.mips64r2
p772
ass(Vbase
p773
g750
tp774
(dp775
g197
(lp776
g199
asVkernel-arch
p777
Vmips
p778
ss(Vimage
p779
g750
tp780
(dp781
Vinstall-stem
p782
Vvmlinux
p783
ss(Vbuild
p784
g750
tp785
(dp786
Vsigned-modules
p787
I00
sVimage-file
p788
Vvmlinux
p789
ss(Vdescription
p790
g750
NVocteon
p791
tp792
(dp793
Vhardware-long
p794
VCavium Networks Octeon
p795
sVhardware
p796
VOcteon
p797
ss(g202
g750
g199
tp798
(dp799
g205
I01
sg206
(lp800
V5kc-malta
p801
aVocteon
p802
ass(Vdescription
p803
Vmips64el
p804
NVloongson-3
p805
tp806
(dp807
Vhardware-long
p808
VLoongson 3A or 3B based systems (e.g. from Loongson or Lemote)
p809
sVhardware
p810
VLoongson 3A/3B
p811
ss(Vimage
p812
g804
NVloongson-3
p813
tp814
(dp815
Vconfigs
p816
(lp817
Vkernelarch-mips/config.loongson-3
p818
ass(Vimage
p819
g804
NVocteon
p820
tp821
(dp822
Vconfigs
p823
(lp824
Vkernelarch-mips/config.octeon
p825
ass(Vdescription
p826
g804
NV5kc-malta
p827
tp828
(dp829
Vhardware-long
p830
VMIPS Malta boards
p831
sVhardware
p832
VMIPS Malta
p833
ss(Vimage
p834
g804
NV5kc-malta
p835
tp836
(dp837
Vconfigs
p838
(lp839
Vkernelarch-mips/config.malta
p840
aVkernelarch-mips/config.mips64r2
p841
ass(Vbase
p842
g804
tp843
(dp844
g197
(lp845
g199
asVkernel-arch
p846
Vmips
p847
ss(Vimage
p848
g804
tp849
(dp850
Vinstall-stem
p851
Vvmlinux
p852
ss(Vbuild
p853
g804
tp854
(dp855
Vsigned-modules
p856
I00
sVimage-file
p857
Vvmlinux
p858
ss(Vdescription
p859
g804
NVocteon
p860
tp861
(dp862
Vhardware-long
p863
VCavium Networks Octeon
p864
sVhardware
p865
VOcteon
p866
ss(g202
g804
g199
tp867
(dp868
g205
I01
sg206
(lp869
V5kc-malta
p870
aVloongson-3
p871
aVocteon
p872
ass(Vdescription
p873
Vpowerpc
p874
NVpowerpc64
p875
tp876
(dp877
Vhardware
p878
V64-bit PowerPC
p879
ss(Vimage
p880
g874
NVpowerpc64
p881
tp882
(dp883
Vconfigs
p884
(lp885
Vkernelarch-powerpc/config-arch-64
p886
aVkernelarch-powerpc/config-arch-64-be
p887
ass(Vdescription
p888
g874
NVpowerpc
p889
tp890
(dp891
Vhardware
p892
Vuniprocessor 32-bit PowerPC
p893
ss(Vimage
p894
g874
tp895
(dp896
Vconfigs
p897
(lp898
sVinstall-stem
p899
Vvmlinux
p900
sVsuggests
p901
Vmkvmlinuz
p902
ss(Vbuild
p903
g874
tp904
(dp905
Vimage-file
p906
Vvmlinux
p907
sVvdso
p908
I01
ss(Vbase
p909
g874
tp910
(dp911
g197
(lp912
g199
asVkernel-arch
p913
Vpowerpc
p914
ss(Vdescription
p915
g874
NVpowerpc-smp
p916
tp917
(dp918
Vhardware
p919
Vmultiprocessor 32-bit PowerPC
p920
ss(Vimage
p921
g874
NVpowerpc-smp
p922
tp923
(dp924
Vconfigs
p925
(lp926
Vpowerpc/config.powerpc
p927
aVpowerpc/config.powerpc-smp
p928
ass(g202
g874
g199
tp929
(dp930
g205
I01
sg206
(lp931
Vpowerpc
p932
aVpowerpc-smp
p933
aVpowerpc64
p934
ass(Vimage
p935
Vpowerpcspe
p936
tp937
(dp938
Vinstall-stem
p939
Vvmlinux
p940
sVsuggests
p941
Vmkvmlinuz
p942
ss(Vbuild
p943
g936
tp944
(dp945
Vsigned-modules
p946
I00
sVimage-file
p947
Vvmlinux
p948
sVvdso
p949
I01
ss(Vdescription
p950
g936
tp951
(dp952
Vhardware
p953
V32-bit PowerPC with SPE (instead of AltiVec) with SMP support
p954
ss(Vbase
p955
g936
tp956
(dp957
g197
(lp958
g199
asVkernel-arch
p959
Vpowerpc
p960
ss(g202
g936
g199
tp961
(dp962
g205
I01
sg206
(lp963
Vpowerpcspe
p964
ass(Vimage
p965
Vppc64
p966
tp967
(dp968
Vconfigs
p969
(lp970
sVinstall-stem
p971
Vvmlinux
p972
sVsuggests
p973
Vmkvmlinuz
p974
ss(Vbuild
p975
g966
tp976
(dp977
Vsigned-modules
p978
I00
sVimage-file
p979
Vvmlinux
p980
sVvdso
p981
I01
ss(Vdescription
p982
g966
NVpowerpc64
p983
tp984
(dp985
Vhardware
p986
V64-bit PowerPC
p987
ss(Vimage
p988
g966
NVpowerpc64
p989
tp990
(dp991
Vconfigs
p992
(lp993
Vkernelarch-powerpc/config-arch-64
p994
aVkernelarch-powerpc/config-arch-64-be
p995
ass(Vbase
p996
g966
tp997
(dp998
g197
(lp999
g199
asVkernel-arch
p1000
Vpowerpc
p1001
ss(g202
g966
g199
tp1002
(dp1003
g205
I01
sg206
(lp1004
Vpowerpc64
p1005
ass(Vimage
p1006
Vppc64el
p1007
tp1008
(dp1009
Vconfigs
p1010
(lp1011
sVinstall-stem
p1012
Vvmlinux
p1013
sVsuggests
p1014
Vmkvmlinuz
p1015
ss(Vbuild
p1016
g1007
tp1017
(dp1018
Vimage-file
p1019
Vvmlinux
p1020
sVvdso
p1021
I01
ss(Vdescription
p1022
g1007
NVpowerpc64le
p1023
tp1024
(dp1025
Vhardware
p1026
VLittle-endian 64-bit PowerPC
p1027
ss(Vimage
p1028
g1007
NVpowerpc64le
p1029
tp1030
(dp1031
Vconfigs
p1032
(lp1033
Vkernelarch-powerpc/config-arch-64
p1034
aVkernelarch-powerpc/config-arch-64-le
p1035
ass(Vbase
p1036
g1007
tp1037
(dp1038
g197
(lp1039
g199
asVkernel-arch
p1040
Vpowerpc
p1041
ss(g202
g1007
g199
tp1042
(dp1043
g205
I01
sg206
(lp1044
Vpowerpc64le
p1045
ass(Vbase
p1046
Vs390
p1047
tp1048
(dp1049
Vfeaturesets
p1050
(lp1051
sVkernel-arch
p1052
Vs390
p1053
ss(Vdescription
p1054
Vs390x
p1055
NVs390x
p1056
tp1057
(dp1058
Vhardware
p1059
VIBM zSeries
p1060
ss(Vrelations
p1061
g1055
tp1062
(dp1063
Vheaders%gcc-6
p1064
Vlinux-compiler-gcc-6-s390
p1065
ss(Vbuild
p1066
g1055
NVs390x
p1067
tp1068
(dp1069
Vdebug-info
p1070
I01
ss(Vimage
p1071
g1055
tp1072
(dp1073
Vbootloaders
p1074
(lp1075
Vs390-tools
p1076
asVinstall-stem
p1077
Vvmlinuz
p1078
ss(Vbuild
p1079
g1055
tp1080
(dp1081
Vimage-file
p1082
Varch/s390/boot/image
p1083
sVvdso
p1084
I01
ss(Vbase
p1085
g1055
tp1086
(dp1087
g197
(lp1088
g199
asVkernel-arch
p1089
Vs390
p1090
ss(g202
g1055
g199
tp1091
(dp1092
g205
I01
sg206
(lp1093
Vs390x
p1094
ass(Vbase
p1095
Vsh3
p1096
tp1097
(dp1098
Vfeaturesets
p1099
(lp1100
sVkernel-arch
p1101
Vsh
p1102
ss(Vdescription
p1103
Vsh4
p1104
NVsh7751r
p1105
tp1106
(dp1107
Vhardware-long
p1108
VRenesas SH7751R R2D plus board
p1109
sVhardware
p1110
Vsh7751r
p1111
ss(Vbase
p1112
g1104
tp1113
(dp1114
g197
(lp1115
g199
asVkernel-arch
p1116
Vsh
p1117
ss(Vimage
p1118
g1104
tp1119
(dp1120
Vinstall-stem
p1121
Vvmlinuz
p1122
ss(Vbuild
p1123
g1104
tp1124
(dp1125
Vsigned-modules
p1126
I00
sVimage-file
p1127
Varch/sh/boot/zImage
p1128
ss(Vimage
p1129
g1104
NVsh7785lcr
p1130
tp1131
(dp1132
Vcheck-size
p1133
L4194304L
sVrecommends
p1134
Vu-boot-tools
p1135
ss(Vdescription
p1136
g1104
NVsh7785lcr
p1137
tp1138
(dp1139
Vhardware-long
p1140
VRenesas SH7785 reference board
p1141
sVhardware
p1142
Vsh7785lcr
p1143
ss(g202
g1104
g199
tp1144
(dp1145
g205
I01
sg206
(lp1146
Vsh7751r
p1147
aVsh7785lcr
p1148
ass(Vbase
p1149
Vsparc
p1150
tp1151
(dp1152
Vfeaturesets
p1153
(lp1154
sVkernel-arch
p1155
Vsparc
p1156
ss(Vbase
p1157
Vsparc64
p1158
tp1159
(dp1160
g197
(lp1161
g199
asVkernel-arch
p1162
Vsparc
p1163
ss(Vdescription
p1164
g1158
NVsparc64-smp
p1165
tp1166
(dp1167
Vhardware
p1168
Vmultiprocessor 64-bit UltraSPARC
p1169
ss(Vdescription
p1170
g1158
NVsparc64
p1171
tp1172
(dp1173
Vhardware
p1174
Vuniprocessor 64-bit UltraSPARC
p1175
ss(Vimage
p1176
g1158
tp1177
(dp1178
Vconfigs
p1179
(lp1180
sVinstall-stem
p1181
Vvmlinuz
p1182
sVsuggests
p1183
Vsilo, fdutils
p1184
ss(Vbuild
p1185
g1158
tp1186
(dp1187
Vsigned-modules
p1188
I00
sVimage-file
p1189
Varch/sparc/boot/zImage
p1190
ss(Vimage
p1191
g1158
NVsparc64
p1192
tp1193
(dp1194
Vconfigs
p1195
(lp1196
Vkernelarch-sparc/config-up
p1197
ass(Vimage
p1198
g1158
NVsparc64-smp
p1199
tp1200
(dp1201
Vconfigs
p1202
(lp1203
Vkernelarch-sparc/config-smp
p1204
ass(g202
g1158
g199
tp1205
(dp1206
g205
I01
sg206
(lp1207
Vsparc64
p1208
aVsparc64-smp
p1209
ass(Vbase
p1210
Vtilegx
p1211
tp1212
(dp1213
Vfeaturesets
p1214
(lp1215
sVkernel-arch
p1216
Vtile
p1217
ss(Vbase
p1218
Vx32
p1219
tp1220
(dp1221
Vfeaturesets
p1222
(lp1223
sVkernel-arch
p1224
Vx86
p1225
ss(Vabi
p1226
NVrt
p1227
tp1228
(dp1229
Vignore-changes
p1230
(lp1231
V*
p1232
ass(Vdescription
p1233
Ng1227
tp1234
(dp1235
Vpart-short-rt
p1236
VPREEMPT_RT
p1237
sVpart-long-rt
p1238
VThis kernel includes the PREEMPT_RT realtime patch set.
p1239
sVparts
p1240
(lp1241
Vrt
p1242
ass(Vversion
p1243
tp1244
(dp1245
Vupstream
p1246
V4.9
p1247
sVabiname_base
p1248
V4.9.0
p1249
sVsource
p1250
V4.9.246-2
p1251
sVabiname
p1252
V4.9.0-14-2
p1253
ss.