cdebian_linux.config
ConfigCore
p0
(tRp1
(Vabi
p2
tp3
(dp4
Vabiname
p5
V12-2
p6
sVignore-changes
p7
(lp8
V__cpuhp_*
p9
aV__udp_gso_segment
p10
aVbpf_analyzer
p11
aVbpf_offload_dev_create
p12
aVbpf_verifier_log_write
p13
aVcxl_*
p14
aVdax_flush
p15
aVieee80211_nullfunc_get
p16
aVinet_add_protocol
p17
aVinet_del_protocol
p18
aViommu_device_*
p19
aVmm_iommu_*
p20
aVmv_mbus_*
p21
aVperf_*
p22
aVregister_cxl_calls
p23
aVregister_key_type
p24
aVunregister_cxl_calls
p25
aV*_hw_breakpoint
p26
aVmodule:drivers/crypto/ccp/*
p27
aVmodule:drivers/hv/*
p28
aVmodule:drivers/gpu/drm/sun4i/*
p29
aVmodule:drivers/iio/**
p30
aVmodule:drivers/misc/cxl/*
p31
aVmodule:drivers/misc/lis3lv02d/*
p32
aVmodule:drivers/mtd/nand/*
p33
aVmodule:drivers/net/ethernet/**
p34
aVmodule:drivers/net/wireless/**
p35
aVmodule:drivers/nvdimm/*
p36
aVmodule:drivers/nvme/**
p37
aVmodule:drivers/power/supply/bq27xxx_battery
p38
aVmodule:drivers/scsi/cxgbi/*
p39
aVmodule:drivers/scsi/libiscs*
p40
aVmodule:drivers/scsi/qla2xxx/qla2xxx
p41
aVmodule:drivers/scsi/ufs/*
p42
aVmodule:drivers/target/**
p43
aVmodule:drivers/usb/chipidea/**
p44
aVmodule:drivers/usb/gadget/**
p45
aVmodule:drivers/usb/host/**
p46
aVmodule:drivers/usb/musb/**
p47
aVmodule:fs/nfs/**
p48
aVmodule:net/ceph/libceph
p49
aVmodule:net/l2tp/**
p50
aVmodule:net/openvswitch/**
p51
aVmodule:net/rxrpc/rxrpc
p52
aVmodule:net/sctp/**
p53
aVmodule:sound/core/seq/**
p54
aVmodule:sound/firewire/snd-firewire-lib
p55
aVmodule:sound/pci/hda/*
p56
aVbtree_*
p57
aVvisitor*
p58
aVcan_rx_register
p59
aVip6_xmit
p60
aVmodule:net/dccp/dccp
p61
aVmodule:net/rds/rds
p62
aVdevfreq_*
p63
aVdevm_devfreq_*
p64
aVupdate_devfreq
p65
aVmodule:drivers/infiniband/**
p66
aVacpi_ec_add_query_handler
p67
aVacpi_ec_remove_query_handler
p68
aVfirst_ec
p69
aVdebugfs_create_automount
p70
aVmodule:drivers/iio/imu/inv_mpu6050/*
p71
aVdrm_crtc_accurate_vblank_count
p72
aVacpi_nfit_desc_init
p73
aVacpi_nfit_init
p74
aVloop_register_transfer
p75
aVxen_xlate_*
p76
aVnf_nat_masquerade_ipv4_register_notifier
p77
aVnf_nat_masquerade_ipv6_register_notifier
p78
aVdfltcc_*
p79
aVmodule:drivers/scsi/hisi_sas/*
p80
aV__gfn_*
p81
aV__kvmhv_*
p82
aV__kvm_*
p83
aV__xive_vm_h_*
p84
aVgfn_*
p85
aVh_ipi_redirect
p86
aVhalt_poll_ns*
p87
aVkvm_*
p88
aVkvmhv_*
p89
aVkvmppc_*
p90
aVmark_page_dirty
p91
aVvcpu_*
p92
aVmodule:arch/powerpc/kvm/*
p93
aVmodule:arch/s390/kvm/*
p94
aVmodule:arch/x86/kvm/*
p95
aVuv_info
p96
aVxhci_init_driver
p97
ass(Vbase
p98
tp99
(dp100
Varches
p101
(lp102
Valpha
p103
aVamd64
p104
aVarm64
p105
aVarm64ilp32
p106
aVarmel
p107
aVarmhf
p108
aVhppa
p109
aVi386
p110
aVia64
p111
aVm68k
p112
aVmips
p113
aVmips64
p114
aVmips64el
p115
aVmips64r6
p116
aVmips64r6el
p117
aVmipsel
p118
aVmipsn32
p119
aVmipsn32el
p120
aVmipsn32r6
p121
aVmipsn32r6el
p122
aVmipsr6
p123
aVmipsr6el
p124
aVpowerpc
p125
aVppc64
p126
aVppc64el
p127
aVriscv64
p128
aVs390
p129
aVs390x
p130
aVsh3
p131
aVsh4
p132
aVsparc
p133
aVsparc64
p134
aVx32
p135
asVcompiler
p136
Vgcc-10
p137
sVfeaturesets
p138
(lp139
Vnone
p140
aVrt
p141
ass(Vbuild
p142
tp143
(dp144
Vdebug-info
p145
I01
sVsigned-code
p146
I00
ss(Vbase
p147
NVrt
p148
tp149
(dp150
Venabled
p151
I01
ss(Vdescription
p152
tp153
(dp154
Vpart-long-up
p155
VThis kernel is not suitable for SMP (multi-processor,\u000amulti-core or hyper-threaded) systems.
p156
ss(Vimage
p157
tp158
(dp159
Vinitramfs-generators
p160
(lp161
Vinitramfs-tools
p162
aVinitramfs-fallback
p163
asVbreaks
p164
(lp165
Vfwupdate (<< 12-7)
p166
aVwireless-regdb (<< 2019.06.03-1~)
p167
asVrecommends
p168
(lp169
Vapparmor
p170
ass(Vrelations
p171
tp172
(dp173
Vgcc-10
p174
Vgcc-10 <!stage1 !cross !pkg.linux.nokernel>, gcc-10-@gnu-type-package@ <!stage1 cross !pkg.linux.nokernel>
p175
sVinitramfs-fallback
p176
Vlinux-initramfs-tool
p177
sVinitramfs-tools
p178
Vinitramfs-tools (>= 0.120+deb8u2)
p179
ss(Vpackages
p180
tp181
(dp182
Vsource
p183
I00
ss(Vbase
p184
Valpha
p185
tp186
(dp187
Vdefault-flavour
p188
Valpha-smp
p189
sVkernel-arch
p190
Valpha
p191
sVfeaturesets
p192
(lp193
Vnone
p194
ass(Vbuild
p195
g185
tp196
(dp197
Vimage-file
p198
Varch/alpha/boot/vmlinux.gz
p199
ss(Vimage
p200
g185
tp201
(dp202
Vsuggests
p203
(lp204
Vaboot
p205
aVfdutils
p206
asVinstall-stem
p207
Vvmlinuz
p208
ss(Vdescription
p209
g185
NValpha-generic
p210
tp211
(dp212
Vhardware
p213
VAlpha
p214
sVhardware-long
p215
VDEC Alpha systems with extended kernel start address (Wildfire, Titan, Marvel)
p216
ss(Vdescription
p217
g185
NValpha-smp
p218
tp219
(dp220
Vhardware
p221
VAlpha SMP
p222
sVhardware-long
p223
VDEC Alpha SMP systems with extended kernel start address (Wildfire, Titan, Marvel)
p224
ss(Vbase
p225
g185
g194
tp226
(dp227
Vflavours
p228
(lp229
Valpha-generic
p230
aValpha-smp
p231
asVimplicit-flavour
p232
I01
ss(Vbase
p233
Vamd64
p234
tp235
(dp236
Vfeaturesets
p237
(lp238
Vnone
p239
aVrt
p240
asVkernel-arch
p241
Vx86
p242
ss(Vbuild
p243
g234
tp244
(dp245
Vimage-file
p246
Varch/x86/boot/bzImage
p247
sVsigned-code
p248
I01
sVvdso
p249
I01
ss(Vimage
p250
g234
tp251
(dp252
Vbootloaders
p253
(lp254
Vgrub-pc
p255
aVgrub-efi-amd64
p256
aVextlinux
p257
asVinstall-stem
p258
Vvmlinuz
p259
sVbreaks
p260
(lp261
Vxserver-xorg-input-vmmouse (<< 1:13.0.99)
p262
ass(Vrelations
p263
g234
tp264
(dp265
Vheaders%gcc-10
p266
Vlinux-compiler-gcc-10-x86
p267
ss(Vdescription
p268
g234
NVamd64
p269
tp270
(dp271
Vhardware
p272
V64-bit PCs
p273
sVhardware-long
p274
VPCs with AMD64, Intel 64 or VIA Nano processors
p275
ss(Vdescription
p276
g234
NVcloud-amd64
p277
tp278
(dp279
Vhardware
p280
Vx86-64 cloud
p281
sVhardware-long
p282
Vcloud platforms including Amazon EC2, Microsoft Azure, and Google Compute Engine
p283
ss(Vbase
p284
g234
Vnone
p285
tp286
(dp287
Vflavours
p288
(lp289
Vamd64
p290
aVcloud-amd64
p291
asVdefault-flavour
p292
Vamd64
p293
ss(Vimage
p294
g234
g285
Vcloud-amd64
p295
tp296
(dp297
Vconfigs
p298
(lp299
Vconfig.cloud
p300
aVamd64/config.cloud-amd64
p301
ass(Vbase
p302
g234
Vrt
p303
tp304
(dp305
Vflavours
p306
(lp307
Vamd64
p308
ass(Vbase
p309
Varm64
p310
tp311
(dp312
Vcross-compile-compat
p313
Varm-linux-gnueabihf-
p314
sVkernel-arch
p315
Varm64
p316
sVfeaturesets
p317
(lp318
Vnone
p319
aVrt
p320
ass(Vbuild
p321
g310
tp322
(dp323
Vimage-file
p324
Varch/arm64/boot/Image
p325
sVsigned-code
p326
I01
sVvdso
p327
I01
ss(Vimage
p328
g310
tp329
(dp330
Vinstall-stem
p331
Vvmlinuz
p332
sVbreaks
p333
(lp334
Vlibmozjs185-1.0
p335
aVlibmozjs-24-0 (<< 24.2.0-5.1~)
p336
ass(Vdescription
p337
g310
NVarm64
p338
tp339
(dp340
Vhardware
p341
V64-bit ARMv8 machines
p342
ss(Vdescription
p343
g310
NVcloud-arm64
p344
tp345
(dp346
Vhardware
p347
Varm64 cloud
p348
sVhardware-long
p349
Vcloud platforms supporting arm64 virtual machines
p350
ss(Vimage
p351
g310
NVarm64
p352
tp353
(dp354
s(Vrelations
p355
g310
tp356
(dp357
Vgcc-10
p358
Vgcc-10 <!stage1 !cross !pkg.linux.nokernel>, gcc-10-aarch64-linux-gnu <!stage1 cross !pkg.linux.nokernel>, gcc-arm-linux-gnueabihf <!stage1 !pkg.linux.nokernel>
p359
sVheaders%gcc-10
p360
Vgcc-10
p361
ss(Vbase
p362
g310
Vnone
p363
tp364
(dp365
Vflavours
p366
(lp367
Varm64
p368
aVcloud-arm64
p369
asVdefault-flavour
p370
Varm64
p371
ss(Vimage
p372
g310
g363
Vcloud-arm64
p373
tp374
(dp375
Vconfigs
p376
(lp377
Vconfig.cloud
p378
aVarm64/config.cloud-arm64
p379
ass(Vbase
p380
g310
Vrt
p381
tp382
(dp383
Vflavours
p384
(lp385
Varm64
p386
ass(Vbase
p387
Varm64ilp32
p388
tp389
(dp390
Vkernel-arch
p391
Varm64
p392
sVfeaturesets
p393
(lp394
ss(Vbase
p395
Varmel
p396
tp397
(dp398
Vkernel-arch
p399
Varm
p400
sg192
(lp401
g194
ass(Vbuild
p402
g396
tp403
(dp404
Vimage-file
p405
Varch/arm/boot/zImage
p406
sVuncompressed-image-file
p407
Varch/arm/boot/Image
p408
ss(Vimage
p409
g396
tp410
(dp411
Vinstall-stem
p412
Vvmlinuz
p413
ss(Vrelations
p414
g396
tp415
(dp416
Vheaders%gcc-10
p417
Vlinux-compiler-gcc-10-arm
p418
ss(Vdescription
p419
g396
NVmarvell
p420
tp421
(dp422
Vhardware
p423
VMarvell Kirkwood/Orion
p424
sVhardware-long
p425
VMarvell Kirkwood and Orion based systems (https://wiki.debian.org/ArmEabiPort#Supported_hardware)
p426
ss(Vdescription
p427
g396
NVrpi
p428
tp429
(dp430
Vhardware
p431
VRaspberry Pi and Pi Zero
p432
sVhardware-long
p433
VRaspberry Pi, Raspberry Pi Zero based systems
p434
ss(Vimage
p435
g396
NVmarvell
p436
tp437
(dp438
Vrecommends
p439
(lp440
Vu-boot-tools
p441
asVcheck-size
p442
I2729712
sVcheck-size-with-dtb
p443
I01
sVbreaks
p444
(lp445
Vflash-kernel (<< 3.57~)
p446
ass(g225
g396
g194
tp447
(dp448
g228
(lp449
Vmarvell
p450
aVrpi
p451
asg232
I01
ss(Vbase
p452
Varmhf
p453
tp454
(dp455
Vfeaturesets
p456
(lp457
Vnone
p458
aVrt
p459
asVkernel-arch
p460
Varm
p461
ss(Vbuild
p462
g453
tp463
(dp464
Vimage-file
p465
Varch/arm/boot/zImage
p466
sVvdso
p467
I01
ss(Vimage
p468
g453
tp469
(dp470
Vinstall-stem
p471
Vvmlinuz
p472
ss(Vrelations
p473
g453
tp474
(dp475
Vheaders%gcc-10
p476
Vlinux-compiler-gcc-10-arm
p477
ss(Vdescription
p478
g453
NVarmmp
p479
tp480
(dp481
Vhardware
p482
VARMv7 multiplatform compatible SoCs
p483
sVhardware-long
p484
VARMv7 multiplatform kernel. See\u000ahttps://wiki.debian.org/DebianKernel/ARMMP for details of supported\u000aplatforms
p485
ss(Vdescription
p486
g453
NVarmmp-lpae
p487
tp488
(dp489
Vhardware
p490
VARMv7 multiplatform compatible SoCs supporting LPAE
p491
sVhardware-long
p492
VARMv7 multiplatform kernel supporting LPAE. See\u000ahttps://wiki.debian.org/DebianKernel/ARMMP for details of supported\u000aplatforms.
p493
ss(Vbase
p494
g453
Vnone
p495
tp496
(dp497
Vflavours
p498
(lp499
Varmmp
p500
aVarmmp-lpae
p501
asVdefault-flavour
p502
Varmmp
p503
ss(Vbase
p504
g453
Vrt
p505
tp506
(dp507
Vflavours
p508
(lp509
Varmmp
p510
ass(Vbase
p511
Vhppa
p512
tp513
(dp514
Vdefault-flavour
p515
Vparisc
p516
sVkernel-arch
p517
Vparisc
p518
sg192
(lp519
g194
ass(Vbuild
p520
g512
tp521
(dp522
Vimage-file
p523
Varch/parisc/boot/bzImage
p524
sVdebug-info
p525
I00
ss(Vimage
p526
g512
tp527
(dp528
Vsuggests
p529
(lp530
Vpalo
p531
asVinstall-stem
p532
Vvmlinuz
p533
ss(Vdescription
p534
g512
NVparisc
p535
tp536
(dp537
Vhardware
p538
V32-bit PA-RISC
p539
sVhardware-long
p540
VHP PA-RISC 32-bit systems with max 4 GB RAM
p541
ss(Vbase
p542
g512
NVparisc64
p543
tp544
(dp545
Vcflags
p546
V-fno-cse-follow-jumps
p547
sVoverride-host-type
p548
Vhppa64-linux-gnu
p549
ss(Vdescription
p550
g512
NVparisc64
p551
tp552
(dp553
Vhardware
p554
V64-bit PA-RISC
p555
sVhardware-long
p556
VHP PA-RISC 64-bit systems with support for more than 4 GB RAM
p557
ss(Vrelations
p558
g512
tp559
(dp560
Vgcc-10
p561
Vgcc-10 <!stage1 !cross !pkg.linux.nokernel>, gcc-10-hppa-linux-gnu <!stage1 cross !pkg.linux.nokernel>, binutils-hppa64-linux-gnu <!stage1 !pkg.linux.nokernel>, gcc-10-hppa64-linux-gnu <!stage1 !pkg.linux.nokernel>
p562
ss(g225
g512
g194
tp563
(dp564
g228
(lp565
Vparisc
p566
aVparisc64
p567
asg232
I01
ss(Vbase
p568
Vi386
p569
tp570
(dp571
Vfeaturesets
p572
(lp573
Vnone
p574
aVrt
p575
asVkernel-arch
p576
Vx86
p577
ss(Vbuild
p578
g569
tp579
(dp580
Vimage-file
p581
Varch/x86/boot/bzImage
p582
sVsigned-code
p583
I01
sVvdso
p584
I01
ss(Vdescription
p585
g569
tp586
(dp587
Vpart-long-pae
p588
VThis kernel requires PAE (Physical Address Extension).\u000aThis feature is supported by the Intel Pentium Pro/II/III/4/4M/D, Xeon,\u000aCore and Atom; AMD Geode NX, Athlon (K7), Duron, Opteron, Sempron,\u000aTurion or Phenom; Transmeta Efficeon; VIA C7; and some other processors.
p589
ss(Vimage
p590
g569
tp591
(dp592
Vbootloaders
p593
(lp594
Vgrub-pc
p595
aVgrub-efi-ia32
p596
aVextlinux
p597
asVinstall-stem
p598
Vvmlinuz
p599
sVbreaks
p600
(lp601
Vxserver-xorg-input-vmmouse (<< 1:13.0.99)
p602
ass(Vrelations
p603
g569
tp604
(dp605
Vheaders%gcc-10
p606
Vlinux-compiler-gcc-10-x86
p607
ss(Vdescription
p608
g569
NV686
p609
tp610
(dp611
Vhardware
p612
Volder PCs
p613
sVhardware-long
p614
VPCs with one or more processors not supporting PAE
p615
ss(Vdescription
p616
g569
NV686-pae
p617
tp618
(dp619
Vhardware
p620
Vmodern PCs
p621
sVhardware-long
p622
VPCs with one or more processors supporting PAE
p623
sVparts
p624
(lp625
Vpae
p626
ass(Vbase
p627
g569
Vnone
p628
tp629
(dp630
Vflavours
p631
(lp632
V686
p633
aV686-pae
p634
asVdefault-flavour
p635
V686-pae
p636
ss(Vbase
p637
g569
Vrt
p638
tp639
(dp640
Vflavours
p641
(lp642
V686-pae
p643
ass(Vbase
p644
Via64
p645
tp646
(dp647
Vdefault-flavour
p648
Vitanium
p649
sVkernel-arch
p650
Via64
p651
sg192
(lp652
g194
ass(Vbuild
p653
g645
tp654
(dp655
Vimage-file
p656
Vvmlinux.gz
p657
ss(Vimage
p658
g645
tp659
(dp660
Vbootloaders
p661
(lp662
Vgrub-efi-ia64
p663
asVinstall-stem
p664
Vvmlinuz
p665
ss(Vdescription
p666
g645
NVitanium
p667
tp668
(dp669
Vhardware
p670
VItanium (Merced)
p671
sVhardware-long
p672
Vsystems with original Itanium (Merced) processors
p673
ss(Vdescription
p674
g645
NVmckinley
p675
tp676
(dp677
Vhardware
p678
VItanium 2+
p679
sVhardware-long
p680
Vsystems with Itanium 2 or 9300/9500/9700-series processors
p681
ss(g225
g645
g194
tp682
(dp683
g228
(lp684
Vitanium
p685
aVmckinley
p686
asg232
I01
ss(Vbase
p687
Vm68k
p688
tp689
(dp690
Vcflags
p691
V-ffreestanding
p692
sVdefault-flavour
p693
Vm68k
p694
sVkernel-arch
p695
Vm68k
p696
sg192
(lp697
g194
ass(Vbuild
p698
g688
tp699
(dp700
Vimage-file
p701
Vvmlinux
p702
ss(Vimage
p703
g688
tp704
(dp705
Vsuggests
p706
(lp707
Vvmelilo
p708
aVfdutils
p709
asVinstall-stem
p710
Vvmlinux
p711
ss(Vdescription
p712
g688
NVm68k
p713
tp714
(dp715
Vhardware
p716
VMotorola MC68020+ family
p717
ss(g225
g688
g194
tp718
(dp719
g228
(lp720
Vm68k
p721
asg232
I01
ss(Vbase
p722
Vmips
p723
tp724
(dp725
Vkernel-arch
p726
Vmips
p727
sg192
(lp728
g194
ass(Vbuild
p729
g723
tp730
(dp731
Vimage-file
p732
Vvmlinuz
p733
ss(Vimage
p734
g723
tp735
(dp736
Vinstall-stem
p737
Vvmlinuz
p738
ss(Vdescription
p739
g723
NV4kc-malta
p740
tp741
(dp742
Vhardware
p743
VMIPS Malta
p744
sVhardware-long
p745
VMIPS Malta boards
p746
ss(Vimage
p747
g723
NV4kc-malta
p748
tp749
(dp750
Vconfigs
p751
(lp752
Vkernelarch-mips/config.malta
p753
aVkernelarch-mips/config.mips32r2
p754
ass(Vdescription
p755
g723
NV5kc-malta
p756
tp757
(dp758
Vhardware
p759
VMIPS Malta (64-bit)
p760
sVhardware-long
p761
VMIPS Malta boards (64-bit)
p762
ss(Vimage
p763
g723
NV5kc-malta
p764
tp765
(dp766
Vconfigs
p767
(lp768
Vkernelarch-mips/config.malta
p769
aVkernelarch-mips/config.mips64r2
p770
ass(Vdescription
p771
g723
NVocteon
p772
tp773
(dp774
Vhardware
p775
VOcteon
p776
sVhardware-long
p777
VCavium Networks Octeon
p778
ss(Vbuild
p779
g723
NVocteon
p780
tp781
(dp782
Vimage-file
p783
Vvmlinux
p784
ss(Vimage
p785
g723
NVocteon
p786
tp787
(dp788
Vinstall-stem
p789
Vvmlinux
p790
sVconfigs
p791
(lp792
Vkernelarch-mips/config.octeon
p793
ass(g225
g723
g194
tp794
(dp795
g228
(lp796
V4kc-malta
p797
aV5kc-malta
p798
aVocteon
p799
asg232
I01
ss(Vbase
p800
Vmips64
p801
tp802
(dp803
Vkernel-arch
p804
Vmips
p805
sg192
(lp806
g194
ass(Vbuild
p807
g801
tp808
(dp809
Vimage-file
p810
Vvmlinuz
p811
ss(Vimage
p812
g801
tp813
(dp814
Vinstall-stem
p815
Vvmlinuz
p816
ss(Vdescription
p817
g801
NV5kc-malta
p818
tp819
(dp820
Vhardware
p821
VMIPS Malta
p822
sVhardware-long
p823
VMIPS Malta boards
p824
ss(Vimage
p825
g801
NV5kc-malta
p826
tp827
(dp828
Vconfigs
p829
(lp830
Vkernelarch-mips/config.malta
p831
aVkernelarch-mips/config.mips64r2
p832
ass(Vdescription
p833
g801
NVocteon
p834
tp835
(dp836
Vhardware
p837
VOcteon
p838
sVhardware-long
p839
VCavium Networks Octeon
p840
ss(Vbuild
p841
g801
NVocteon
p842
tp843
(dp844
Vimage-file
p845
Vvmlinux
p846
ss(Vimage
p847
g801
NVocteon
p848
tp849
(dp850
Vinstall-stem
p851
Vvmlinux
p852
sVconfigs
p853
(lp854
Vkernelarch-mips/config.octeon
p855
ass(g225
g801
g194
tp856
(dp857
g228
(lp858
V5kc-malta
p859
aVocteon
p860
asg232
I01
ss(Vbase
p861
Vmips64el
p862
tp863
(dp864
Vkernel-arch
p865
Vmips
p866
sg192
(lp867
g194
ass(Vbuild
p868
g862
tp869
(dp870
Vimage-file
p871
Vvmlinuz
p872
ss(Vimage
p873
g862
tp874
(dp875
Vinstall-stem
p876
Vvmlinuz
p877
ss(Vdescription
p878
g862
NV5kc-malta
p879
tp880
(dp881
Vhardware
p882
VMIPS Malta
p883
sVhardware-long
p884
VMIPS Malta boards
p885
ss(Vimage
p886
g862
NV5kc-malta
p887
tp888
(dp889
Vconfigs
p890
(lp891
Vkernelarch-mips/config.malta
p892
aVkernelarch-mips/config.mips64r2
p893
ass(Vdescription
p894
g862
NVloongson-3
p895
tp896
(dp897
Vhardware
p898
VLoongson 3A/3B
p899
sVhardware-long
p900
VLoongson 3A or 3B based systems (e.g. from Loongson or Lemote)
p901
ss(Vimage
p902
g862
NVloongson-3
p903
tp904
(dp905
Vconfigs
p906
(lp907
Vkernelarch-mips/config.loongson-3
p908
ass(Vdescription
p909
g862
NVocteon
p910
tp911
(dp912
Vhardware
p913
VOcteon
p914
sVhardware-long
p915
VCavium Networks Octeon
p916
ss(Vbuild
p917
g862
NVocteon
p918
tp919
(dp920
Vimage-file
p921
Vvmlinux
p922
ss(Vimage
p923
g862
NVocteon
p924
tp925
(dp926
Vinstall-stem
p927
Vvmlinux
p928
sVconfigs
p929
(lp930
Vkernelarch-mips/config.octeon
p931
ass(g225
g862
g194
tp932
(dp933
g228
(lp934
V5kc-malta
p935
aVloongson-3
p936
aVocteon
p937
asg232
I01
ss(Vbase
p938
Vmips64r6
p939
tp940
(dp941
Vdefault-flavour
p942
Vmips64r6
p943
sVkernel-arch
p944
Vmips
p945
sg192
(lp946
g194
ass(Vbuild
p947
g939
tp948
(dp949
Vimage-file
p950
Vvmlinux
p951
ss(Vimage
p952
g939
tp953
(dp954
Vinstall-stem
p955
Vvmlinux
p956
ss(Vdescription
p957
g939
NVmips64r6
p958
tp959
(dp960
Vhardware
p961
VMIPS R6 (64 bit, big endian)
p962
sVhardware-long
p963
VMIPS R6 (64 bit, big endian)
p964
ss(Vimage
p965
g939
NVmips64r6
p966
tp967
(dp968
Vconfigs
p969
(lp970
Vkernelarch-mips/config.boston
p971
aVkernelarch-mips/config.mips64r6
p972
ass(g225
g939
g194
tp973
(dp974
g228
(lp975
Vmips64r6
p976
asg232
I01
ss(Vbase
p977
Vmips64r6el
p978
tp979
(dp980
Vdefault-flavour
p981
Vmips64r6el
p982
sVkernel-arch
p983
Vmips
p984
sg192
(lp985
g194
ass(Vbuild
p986
g978
tp987
(dp988
Vimage-file
p989
Vvmlinux
p990
ss(Vimage
p991
g978
tp992
(dp993
Vinstall-stem
p994
Vvmlinux
p995
ss(Vdescription
p996
g978
NVmips64r6el
p997
tp998
(dp999
Vhardware
p1000
VMIPS R6 (64 bit, little endian)
p1001
sVhardware-long
p1002
VMIPS R6 (64 bit, little endian)
p1003
ss(Vimage
p1004
g978
NVmips64r6el
p1005
tp1006
(dp1007
Vconfigs
p1008
(lp1009
Vkernelarch-mips/config.boston
p1010
aVkernelarch-mips/config.mips64r6
p1011
ass(g225
g978
g194
tp1012
(dp1013
g228
(lp1014
Vmips64r6el
p1015
asg232
I01
ss(Vbase
p1016
Vmipsel
p1017
tp1018
(dp1019
Vkernel-arch
p1020
Vmips
p1021
sg192
(lp1022
g194
ass(Vbuild
p1023
g1017
tp1024
(dp1025
Vimage-file
p1026
Vvmlinuz
p1027
ss(Vimage
p1028
g1017
tp1029
(dp1030
Vinstall-stem
p1031
Vvmlinuz
p1032
ss(Vdescription
p1033
g1017
NV4kc-malta
p1034
tp1035
(dp1036
Vhardware
p1037
VMIPS Malta
p1038
sVhardware-long
p1039
VMIPS Malta boards
p1040
ss(Vimage
p1041
g1017
NV4kc-malta
p1042
tp1043
(dp1044
Vconfigs
p1045
(lp1046
Vkernelarch-mips/config.malta
p1047
aVkernelarch-mips/config.mips32r2
p1048
ass(Vdescription
p1049
g1017
NV5kc-malta
p1050
tp1051
(dp1052
Vhardware
p1053
VMIPS Malta (64-bit)
p1054
sVhardware-long
p1055
VMIPS Malta boards (64-bit)
p1056
ss(Vimage
p1057
g1017
NV5kc-malta
p1058
tp1059
(dp1060
Vconfigs
p1061
(lp1062
Vkernelarch-mips/config.malta
p1063
aVkernelarch-mips/config.mips64r2
p1064
ass(Vdescription
p1065
g1017
NVloongson-3
p1066
tp1067
(dp1068
Vhardware
p1069
VLoongson 3A/3B
p1070
sVhardware-long
p1071
VLoongson 3A or 3B based systems (e.g. from Loongson or Lemote)
p1072
ss(Vimage
p1073
g1017
NVloongson-3
p1074
tp1075
(dp1076
Vconfigs
p1077
(lp1078
Vkernelarch-mips/config.loongson-3
p1079
ass(Vdescription
p1080
g1017
NVocteon
p1081
tp1082
(dp1083
Vhardware
p1084
VOcteon
p1085
sVhardware-long
p1086
VCavium Networks Octeon
p1087
ss(Vbuild
p1088
g1017
NVocteon
p1089
tp1090
(dp1091
Vimage-file
p1092
Vvmlinux
p1093
ss(Vimage
p1094
g1017
NVocteon
p1095
tp1096
(dp1097
Vinstall-stem
p1098
Vvmlinux
p1099
sVconfigs
p1100
(lp1101
Vkernelarch-mips/config.octeon
p1102
ass(g225
g1017
g194
tp1103
(dp1104
g228
(lp1105
V4kc-malta
p1106
aV5kc-malta
p1107
aVloongson-3
p1108
aVocteon
p1109
asg232
I01
ss(Vbase
p1110
Vmipsn32
p1111
tp1112
(dp1113
Vkernel-arch
p1114
Vmips
p1115
sVfeaturesets
p1116
(lp1117
ss(Vbase
p1118
Vmipsn32el
p1119
tp1120
(dp1121
Vkernel-arch
p1122
Vmips
p1123
sVfeaturesets
p1124
(lp1125
ss(Vbase
p1126
Vmipsn32r6
p1127
tp1128
(dp1129
Vkernel-arch
p1130
Vmips
p1131
sVfeaturesets
p1132
(lp1133
ss(Vbase
p1134
Vmipsn32r6el
p1135
tp1136
(dp1137
Vkernel-arch
p1138
Vmips
p1139
sVfeaturesets
p1140
(lp1141
ss(Vbase
p1142
Vmipsr6
p1143
tp1144
(dp1145
Vdefault-flavour
p1146
Vmips32r6
p1147
sVkernel-arch
p1148
Vmips
p1149
sg192
(lp1150
g194
ass(Vbuild
p1151
g1143
tp1152
(dp1153
Vimage-file
p1154
Vvmlinux
p1155
ss(Vimage
p1156
g1143
tp1157
(dp1158
Vinstall-stem
p1159
Vvmlinux
p1160
ss(Vdescription
p1161
g1143
NVmips32r6
p1162
tp1163
(dp1164
Vhardware
p1165
VMIPS R6 (32 bit, big endian)
p1166
sVhardware-long
p1167
VMIPS R6 (32 bit, big endian)
p1168
ss(Vimage
p1169
g1143
NVmips32r6
p1170
tp1171
(dp1172
Vconfigs
p1173
(lp1174
Vkernelarch-mips/config.boston
p1175
aVkernelarch-mips/config.mips32r6
p1176
ass(Vdescription
p1177
g1143
NVmips64r6
p1178
tp1179
(dp1180
Vhardware
p1181
VMIPS R6 (64 bit, big endian)
p1182
sVhardware-long
p1183
VMIPS R6 (64 bit, big endian)
p1184
ss(Vimage
p1185
g1143
NVmips64r6
p1186
tp1187
(dp1188
Vconfigs
p1189
(lp1190
Vkernelarch-mips/config.boston
p1191
aVkernelarch-mips/config.mips64r6
p1192
ass(g225
g1143
g194
tp1193
(dp1194
g228
(lp1195
Vmips32r6
p1196
aVmips64r6
p1197
asg232
I01
ss(Vbase
p1198
Vmipsr6el
p1199
tp1200
(dp1201
Vdefault-flavour
p1202
Vmips32r6el
p1203
sVkernel-arch
p1204
Vmips
p1205
sg192
(lp1206
g194
ass(Vbuild
p1207
g1199
tp1208
(dp1209
Vimage-file
p1210
Vvmlinux
p1211
ss(Vimage
p1212
g1199
tp1213
(dp1214
Vinstall-stem
p1215
Vvmlinux
p1216
ss(Vdescription
p1217
g1199
NVmips32r6el
p1218
tp1219
(dp1220
Vhardware
p1221
VMIPS R6 (32 bit, little endian)
p1222
sVhardware-long
p1223
VMIPS R6 (32 bit, little endian)
p1224
ss(Vimage
p1225
g1199
NVmips32r6el
p1226
tp1227
(dp1228
Vconfigs
p1229
(lp1230
Vkernelarch-mips/config.boston
p1231
aVkernelarch-mips/config.mips32r6
p1232
ass(Vdescription
p1233
g1199
NVmips64r6el
p1234
tp1235
(dp1236
Vhardware
p1237
VMIPS R6 (64 bit, little endian)
p1238
sVhardware-long
p1239
VMIPS R6 (64 bit, little endian)
p1240
ss(Vimage
p1241
g1199
NVmips64r6el
p1242
tp1243
(dp1244
Vconfigs
p1245
(lp1246
Vkernelarch-mips/config.boston
p1247
aVkernelarch-mips/config.mips64r6
p1248
ass(g225
g1199
g194
tp1249
(dp1250
g228
(lp1251
Vmips32r6el
p1252
aVmips64r6el
p1253
asg232
I01
ss(Vbase
p1254
Vpowerpc
p1255
tp1256
(dp1257
Vkernel-arch
p1258
Vpowerpc
p1259
sg192
(lp1260
g194
ass(Vbuild
p1261
g1255
tp1262
(dp1263
Vimage-file
p1264
Vvmlinux
p1265
sVvdso
p1266
I01
ss(Vimage
p1267
g1255
tp1268
(dp1269
Vconfigs
p1270
(lp1271
sVbootloaders
p1272
(lp1273
Vgrub-ieee1275
p1274
asVsuggests
p1275
(lp1276
Vmkvmlinuz
p1277
asVinstall-stem
p1278
Vvmlinux
p1279
ss(Vdescription
p1280
g1255
NVpowerpc
p1281
tp1282
(dp1283
Vhardware
p1284
Vuniprocessor 32-bit PowerPC
p1285
ss(Vdescription
p1286
g1255
NVpowerpc-smp
p1287
tp1288
(dp1289
Vhardware
p1290
Vmultiprocessor 32-bit PowerPC
p1291
ss(Vimage
p1292
g1255
NVpowerpc-smp
p1293
tp1294
(dp1295
Vconfigs
p1296
(lp1297
Vpowerpc/config.powerpc
p1298
aVpowerpc/config.powerpc-smp
p1299
ass(Vdescription
p1300
g1255
NVpowerpc64
p1301
tp1302
(dp1303
Vhardware
p1304
V64-bit PowerPC
p1305
ss(Vimage
p1306
g1255
NVpowerpc64
p1307
tp1308
(dp1309
Vconfigs
p1310
(lp1311
Vkernelarch-powerpc/config-arch-64
p1312
aVkernelarch-powerpc/config-arch-64-be
p1313
ass(g225
g1255
g194
tp1314
(dp1315
g228
(lp1316
Vpowerpc
p1317
aVpowerpc-smp
p1318
aVpowerpc64
p1319
asg232
I01
ss(Vbase
p1320
Vppc64
p1321
tp1322
(dp1323
Vdefault-flavour
p1324
Vpowerpc64
p1325
sVkernel-arch
p1326
Vpowerpc
p1327
sg192
(lp1328
g194
ass(Vbuild
p1329
g1321
tp1330
(dp1331
Vimage-file
p1332
Vvmlinux
p1333
sVvdso
p1334
I01
ss(Vimage
p1335
g1321
tp1336
(dp1337
Vconfigs
p1338
(lp1339
sVbootloaders
p1340
(lp1341
Vgrub-ieee1275
p1342
asVsuggests
p1343
(lp1344
Vmkvmlinuz
p1345
asVinstall-stem
p1346
Vvmlinux
p1347
ss(Vdescription
p1348
g1321
NVpowerpc64
p1349
tp1350
(dp1351
Vhardware
p1352
V64-bit PowerPC
p1353
ss(Vimage
p1354
g1321
NVpowerpc64
p1355
tp1356
(dp1357
Vconfigs
p1358
(lp1359
Vkernelarch-powerpc/config-arch-64
p1360
aVkernelarch-powerpc/config-arch-64-be
p1361
ass(g225
g1321
g194
tp1362
(dp1363
g228
(lp1364
Vpowerpc64
p1365
asg232
I01
ss(Vbase
p1366
Vppc64el
p1367
tp1368
(dp1369
Vdefault-flavour
p1370
Vpowerpc64le
p1371
sVkernel-arch
p1372
Vpowerpc
p1373
sg192
(lp1374
g194
ass(Vbuild
p1375
g1367
tp1376
(dp1377
Vimage-file
p1378
Vvmlinux
p1379
sVvdso
p1380
I01
ss(Vimage
p1381
g1367
tp1382
(dp1383
Vconfigs
p1384
(lp1385
sVbootloaders
p1386
(lp1387
Vgrub-ieee1275
p1388
asVsuggests
p1389
(lp1390
Vmkvmlinuz
p1391
asVinstall-stem
p1392
Vvmlinux
p1393
ss(Vdescription
p1394
g1367
NVpowerpc64le
p1395
tp1396
(dp1397
Vhardware
p1398
VLittle-endian 64-bit PowerPC
p1399
ss(Vimage
p1400
g1367
NVpowerpc64le
p1401
tp1402
(dp1403
Vconfigs
p1404
(lp1405
Vkernelarch-powerpc/config-arch-64
p1406
aVkernelarch-powerpc/config-arch-64-le
p1407
ass(g225
g1367
g194
tp1408
(dp1409
g228
(lp1410
Vpowerpc64le
p1411
asg232
I01
ss(Vbase
p1412
Vriscv64
p1413
tp1414
(dp1415
Vkernel-arch
p1416
Vriscv
p1417
sVfeaturesets
p1418
(lp1419
Vnone
p1420
ass(Vbuild
p1421
g1413
tp1422
(dp1423
Vimage-file
p1424
Varch/riscv/boot/Image
p1425
sVvdso
p1426
I01
ss(Vimage
p1427
g1413
tp1428
(dp1429
Vinstall-stem
p1430
Vvmlinux
p1431
ss(Vdescription
p1432
g1413
NVriscv64
p1433
tp1434
(dp1435
Vhardware
p1436
V64-bit RISC-V platforms
p1437
sVhardware-long
p1438
V64-bit RISC-V platforms
p1439
ss(Vbase
p1440
g1413
Vnone
p1441
tp1442
(dp1443
Vflavours
p1444
(lp1445
Vriscv64
p1446
asVdefault-flavour
p1447
Vriscv64
p1448
ss(Vbase
p1449
Vs390
p1450
tp1451
(dp1452
Vkernel-arch
p1453
Vs390
p1454
sVfeaturesets
p1455
(lp1456
ss(Vbase
p1457
Vs390x
p1458
tp1459
(dp1460
Vdefault-flavour
p1461
Vs390x
p1462
sVkernel-arch
p1463
Vs390
p1464
sg192
(lp1465
g194
ass(Vbuild
p1466
g1458
tp1467
(dp1468
Vimage-file
p1469
Varch/s390/boot/bzImage
p1470
sVvdso
p1471
I01
ss(Vimage
p1472
g1458
tp1473
(dp1474
Vbootloaders
p1475
(lp1476
Vs390-tools
p1477
asVinstall-stem
p1478
Vvmlinuz
p1479
ss(Vrelations
p1480
g1458
tp1481
(dp1482
Vheaders%gcc-10
p1483
Vlinux-compiler-gcc-10-s390
p1484
ss(Vdescription
p1485
g1458
NVs390x
p1486
tp1487
(dp1488
Vhardware
p1489
VIBM zSeries
p1490
ss(g225
g1458
g194
tp1491
(dp1492
g228
(lp1493
Vs390x
p1494
asg232
I01
ss(Vbase
p1495
Vsh3
p1496
tp1497
(dp1498
Vkernel-arch
p1499
Vsh
p1500
sVfeaturesets
p1501
(lp1502
ss(Vbase
p1503
Vsh4
p1504
tp1505
(dp1506
Vkernel-arch
p1507
Vsh
p1508
sg192
(lp1509
g194
ass(Vbuild
p1510
g1504
tp1511
(dp1512
Vimage-file
p1513
Varch/sh/boot/zImage
p1514
ss(Vimage
p1515
g1504
tp1516
(dp1517
Vinstall-stem
p1518
Vvmlinuz
p1519
ss(Vdescription
p1520
g1504
NVsh7751r
p1521
tp1522
(dp1523
Vhardware
p1524
Vsh7751r
p1525
sVhardware-long
p1526
VRenesas SH7751R R2D plus board
p1527
ss(Vdescription
p1528
g1504
NVsh7785lcr
p1529
tp1530
(dp1531
Vhardware
p1532
Vsh7785lcr
p1533
sVhardware-long
p1534
VRenesas SH7785 reference board
p1535
ss(Vimage
p1536
g1504
NVsh7785lcr
p1537
tp1538
(dp1539
Vrecommends
p1540
(lp1541
Vu-boot-tools
p1542
asVcheck-size
p1543
I4194304
ss(g225
g1504
g194
tp1544
(dp1545
g228
(lp1546
Vsh7751r
p1547
aVsh7785lcr
p1548
asg232
I01
ss(Vbase
p1549
Vsparc
p1550
tp1551
(dp1552
Vkernel-arch
p1553
Vsparc
p1554
sVfeaturesets
p1555
(lp1556
ss(Vbase
p1557
Vsparc64
p1558
tp1559
(dp1560
Vdefault-flavour
p1561
Vsparc64-smp
p1562
sVkernel-arch
p1563
Vsparc
p1564
sg192
(lp1565
g194
ass(Vbuild
p1566
g1558
tp1567
(dp1568
Vimage-file
p1569
Vvmlinux
p1570
ss(Vimage
p1571
g1558
tp1572
(dp1573
Vconfigs
p1574
(lp1575
sVbootloaders
p1576
(lp1577
Vgrub-ieee1275
p1578
asVsuggests
p1579
(lp1580
Vfdutils
p1581
asVinstall-stem
p1582
Vvmlinux
p1583
ss(Vdescription
p1584
g1558
NVsparc64
p1585
tp1586
(dp1587
Vhardware
p1588
Vuniprocessor 64-bit UltraSPARC
p1589
ss(Vimage
p1590
g1558
NVsparc64
p1591
tp1592
(dp1593
Vconfigs
p1594
(lp1595
Vkernelarch-sparc/config-up
p1596
ass(Vdescription
p1597
g1558
NVsparc64-smp
p1598
tp1599
(dp1600
Vhardware
p1601
Vmultiprocessor 64-bit UltraSPARC
p1602
ss(Vimage
p1603
g1558
NVsparc64-smp
p1604
tp1605
(dp1606
Vconfigs
p1607
(lp1608
Vkernelarch-sparc/config-smp
p1609
ass(g225
g1558
g194
tp1610
(dp1611
g228
(lp1612
Vsparc64
p1613
aVsparc64-smp
p1614
asg232
I01
ss(Vbase
p1615
Vx32
p1616
tp1617
(dp1618
Vkernel-arch
p1619
Vx86
p1620
sVfeaturesets
p1621
(lp1622
ss(Vabi
p1623
NVrt
p1624
tp1625
(dp1626
Vignore-changes
p1627
(lp1628
V*
p1629
ass(Vdescription
p1630
Ng1624
tp1631
(dp1632
Vpart-long-rt
p1633
VThis kernel includes the PREEMPT_RT realtime patch set.
p1634
sVpart-short-rt
p1635
VPREEMPT_RT
p1636
sVparts
p1637
(lp1638
Vrt
p1639
ass(Vversion
p1640
tp1641
(dp1642
Vsource
p1643
V5.10.103-1
p1644
sVupstream
p1645
V5.10
p1646
sVabiname_base
p1647
V5.10.0
p1648
sVabiname
p1649
V5.10.0-12-2
p1650
ss.